; Function Attrs: mustprogress nounwind uwtable
define dso_local void @_ZN4node6crypto13SecureContext3NewERKN2v820FunctionCallbackInfoINS2_5ValueEEE(ptr nocapture noundef nonnull readonly align 8 dereferenceable(20) %args) #3 align 2 {
entry:
  %0 = load ptr, ptr %args, align 8
  %arrayidx.i.i = getelementptr inbounds i8, ptr %0, i64 8
  %1 = load ptr, ptr %arrayidx.i.i, align 8
  %call1.i = tail call ptr @_ZN2v87Isolate17GetCurrentContextEv(ptr noundef nonnull align 1 dereferenceable(1) %1) #20
  %cmp.i.i.i.i = icmp eq ptr %call1.i, null
  br i1 %cmp.i.i.i.i, label %_ZN4node11Environment10GetCurrentERKN2v820FunctionCallbackInfoINS1_5ValueEEE.exit, label %if.end.i.i.i

if.end.i.i.i:                                     ; preds = %entry
  %call5.i.i.i = tail call noundef i32 @_ZN2v87Context29GetNumberOfEmbedderDataFieldsEv(ptr noundef nonnull align 1 dereferenceable(1) %call1.i) #20
  %cmp.i.i.i = icmp ult i32 %call5.i.i.i, 40
  br i1 %cmp.i.i.i, label %_ZN4node11Environment10GetCurrentERKN2v820FunctionCallbackInfoINS1_5ValueEEE.exit, label %_ZN4node18ContextEmbedderTag13IsNodeContextEN2v85LocalINS1_7ContextEEE.exit.i.i

_ZN4node18ContextEmbedderTag13IsNodeContextEN2v85LocalINS1_7ContextEEE.exit.i.i: ; preds = %if.end.i.i.i
  %2 = load i64, ptr %call1.i, align 8
  %sub.i.i.i.i.i = add i64 %2, 47
  %3 = inttoptr i64 %sub.i.i.i.i.i to ptr
  %4 = load i64, ptr %3, align 8
  %sub.i.i42.i.i.i = add i64 %4, 327
  %5 = inttoptr i64 %sub.i.i42.i.i.i to ptr
  %6 = load i64, ptr %5, align 8
  %7 = inttoptr i64 %6 to ptr
  %8 = load ptr, ptr @_ZN4node18ContextEmbedderTag18kNodeContextTagPtrE, align 8
  %cmp12.not.i.i.i = icmp eq ptr %8, %7
  br i1 %cmp12.not.i.i.i, label %if.end.i.i, label %_ZN4node11Environment10GetCurrentERKN2v820FunctionCallbackInfoINS1_5ValueEEE.exit

if.end.i.i:                                       ; preds = %_ZN4node18ContextEmbedderTag13IsNodeContextEN2v85LocalINS1_7ContextEEE.exit.i.i
  %sub.i.i23.i.i = add i64 %4, 271
  %9 = inttoptr i64 %sub.i.i23.i.i to ptr
  %10 = load i64, ptr %9, align 8
  %11 = inttoptr i64 %10 to ptr
  br label %_ZN4node11Environment10GetCurrentERKN2v820FunctionCallbackInfoINS1_5ValueEEE.exit

_ZN4node11Environment10GetCurrentERKN2v820FunctionCallbackInfoINS1_5ValueEEE.exit: ; preds = %entry, %if.end.i.i.i, %_ZN4node18ContextEmbedderTag13IsNodeContextEN2v85LocalINS1_7ContextEEE.exit.i.i, %if.end.i.i
  %retval.0.i.i = phi ptr [ %11, %if.end.i.i ], [ null, %_ZN4node18ContextEmbedderTag13IsNodeContextEN2v85LocalINS1_7ContextEEE.exit.i.i ], [ null, %entry ], [ null, %if.end.i.i.i ]
  %call1 = tail call noalias noundef nonnull dereferenceable(128) ptr @_Znwm(i64 noundef 128) #23
  %values_.i = getelementptr inbounds i8, ptr %args, i64 8
  %12 = load ptr, ptr %values_.i, align 8
  %add.ptr.i = getelementptr inbounds i8, ptr %12, i64 -8
  %principal_realm_.i.i.i = getelementptr inbounds i8, ptr %retval.0.i.i, i64 2728
  %13 = load ptr, ptr %principal_realm_.i.i.i, align 8
  tail call void @_ZN4node10BaseObjectC2EPNS_5RealmEN2v85LocalINS3_6ObjectEEE(ptr noundef nonnull align 8 dereferenceable(32) %call1, ptr noundef %13, ptr nonnull %add.ptr.i) #20
  store ptr getelementptr inbounds ({ [19 x ptr] }, ptr @_ZTVN4node6crypto13SecureContextE, i64 0, i32 0, i64 2), ptr %call1, align 8
  %ctx_.i = getelementptr inbounds i8, ptr %call1, i64 32
  %private_key_engine_.i = getelementptr inbounds i8, ptr %call1, i64 64
  store ptr null, ptr %private_key_engine_.i, align 8
  %finish_on_exit.i.i = getelementptr inbounds i8, ptr %call1, i64 72
  store i8 0, ptr %finish_on_exit.i.i, align 8
  tail call void @llvm.memset.p0.i64(ptr noundef nonnull align 8 dereferenceable(25) %ctx_.i, i8 0, i64 25, i1 false)
  tail call void @_ZN4node10BaseObject8MakeWeakEv(ptr noundef nonnull align 8 dereferenceable(32) %call1) #20
  %isolate_.i.i = getelementptr inbounds i8, ptr %retval.0.i.i, i64 88
  %14 = load ptr, ptr %isolate_.i.i, align 8
  %call7.i = tail call noundef i64 @_ZN2v87Isolate37AdjustAmountOfExternalAllocatedMemoryEl(ptr noundef nonnull align 1 dereferenceable(1) %14, i64 noundef 1024) #20
  ret void
}